; Function Attrs: mustprogress uwtable
define noundef ptr @_ZN6icu_7513BreakIterator19getAvailableLocalesEv() local_unnamed_addr #1 align 2 personality ptr @__gxx_personality_v0 {
entry:
  %0 = load atomic i32, ptr @_ZL16gInitOnceBrkiter acquire, align 4
  %cmp.i.i = icmp eq i32 %0, 2
  br i1 %cmp.i.i, label %_ZN6icu_75L10getServiceEv.exit, label %if.end.i.i

if.end.i.i:                                       ; preds = %entry
  %call1.i.i = tail call noundef signext i8 @_ZN6icu_7520umtx_initImplPreInitERNS_9UInitOnceE(ptr noundef nonnull align 4 dereferenceable(8) @_ZL16gInitOnceBrkiter)
  %tobool.not.i.i = icmp eq i8 %call1.i.i, 0
  br i1 %tobool.not.i.i, label %_ZN6icu_75L10getServiceEv.exit, label %if.then2.i.i

if.then2.i.i:                                     ; preds = %if.end.i.i
  %call.i.i = tail call noundef ptr @_ZN6icu_757UMemorynwEm(i64 noundef 408) #18
  %new.isnull.i.i = icmp eq ptr %call.i.i, null
  br i1 %new.isnull.i.i, label %_ZN6icu_75L11initServiceEv.exit.i, label %new.notnull.i.i

new.notnull.i.i:                                  ; preds = %if.then2.i.i
  invoke void @_ZN6icu_7523ICUBreakIteratorServiceC2Ev(ptr noundef nonnull align 8 dereferenceable(408) %call.i.i)
          to label %_ZN6icu_75L11initServiceEv.exit.i unwind label %lpad.i.i

lpad.i.i:                                         ; preds = %new.notnull.i.i
  %1 = landingpad { ptr, i32 }
          cleanup
  tail call void @_ZN6icu_757UMemorydlEPv(ptr noundef nonnull %call.i.i) #18
  resume { ptr, i32 } %1

_ZN6icu_75L11initServiceEv.exit.i:                ; preds = %new.notnull.i.i, %if.then2.i.i
  store ptr %call.i.i, ptr @_ZL8gService, align 8
  tail call void @ucln_common_registerCleanup_75(i32 noundef 2, ptr noundef nonnull @_ZL21breakiterator_cleanupv)
  tail call void @_ZN6icu_7521umtx_initImplPostInitERNS_9UInitOnceE(ptr noundef nonnull align 4 dereferenceable(8) @_ZL16gInitOnceBrkiter)
  br label %_ZN6icu_75L10getServiceEv.exit

_ZN6icu_75L10getServiceEv.exit:                   ; preds = %entry, %if.end.i.i, %_ZN6icu_75L11initServiceEv.exit.i
  %2 = load ptr, ptr @_ZL8gService, align 8
  %cmp = icmp eq ptr %2, null
  br i1 %cmp, label %return, label %if.end

if.end:                                           ; preds = %_ZN6icu_75L10getServiceEv.exit
  %vtable = load ptr, ptr %2, align 8
  %vfn = getelementptr inbounds i8, ptr %vtable, i64 176
  %3 = load ptr, ptr %vfn, align 8
  %call1 = tail call noundef ptr %3(ptr noundef nonnull align 8 dereferenceable(408) %2)
  br label %return

return:                                           ; preds = %_ZN6icu_75L10getServiceEv.exit, %if.end
  %retval.0 = phi ptr [ %call1, %if.end ], [ null, %_ZN6icu_75L10getServiceEv.exit ]
  ret ptr %retval.0
}